target datalayout = "e-m:e-p270:32:32-p271:32:32-p272:64:64-i64:64-i128:128-f80:128-n8:16:32:64-S128"
target triple = "x86_64-pc-linux-gnu"

%"class.__gnu_cxx::__normal_iterator" = type { ptr }
%"class.std::reverse_iterator" = type { %"class.__gnu_cxx::__normal_iterator" }
%"class.pxrInternal_v0_24__pxrReserved__::TsKeyFrameMap" = type { %"class.std::vector" }
%"class.std::vector" = type { %"struct.std::_Vector_base" }
%"struct.std::_Vector_base" = type { %"struct.std::_Vector_base<pxrInternal_v0_24__pxrReserved__::TsKeyFrame, std::allocator<pxrInternal_v0_24__pxrReserved__::TsKeyFrame>>::_Vector_impl" }
%"struct.std::_Vector_base<pxrInternal_v0_24__pxrReserved__::TsKeyFrame, std::allocator<pxrInternal_v0_24__pxrReserved__::TsKeyFrame>>::_Vector_impl" = type { %"struct.std::_Vector_base<pxrInternal_v0_24__pxrReserved__::TsKeyFrame, std::allocator<pxrInternal_v0_24__pxrReserved__::TsKeyFrame>>::_Vector_impl_data" }
%"struct.std::_Vector_base<pxrInternal_v0_24__pxrReserved__::TsKeyFrame, std::allocator<pxrInternal_v0_24__pxrReserved__::TsKeyFrame>>::_Vector_impl_data" = type { ptr, ptr, ptr }
%"class.pxrInternal_v0_24__pxrReserved__::TsKeyFrame" = type { %"class.pxrInternal_v0_24__pxrReserved__::Ts_PolymorphicDataHolder" }
%"class.pxrInternal_v0_24__pxrReserved__::Ts_PolymorphicDataHolder" = type { %"union.std::aligned_storage<72, 8>::type" }
%"union.std::aligned_storage<72, 8>::type" = type { [72 x i8] }
%"class.pxrInternal_v0_24__pxrReserved__::Ts_Data" = type { ptr, double }

; Function Attrs: mustprogress nounwind uwtable
define linkonce_odr void @_ZNSt16reverse_iteratorIN9__gnu_cxx17__normal_iteratorIPKN32pxrInternal_v0_24__pxrReserved__10TsKeyFrameESt6vectorIS3_SaIS3_EEEEEC2ES9_(ptr noundef nonnull align 8 dereferenceable(8) %0, ptr %1) unnamed_addr #1 comdat align 2 {
  %3 = alloca %"class.__gnu_cxx::__normal_iterator", align 8
  %4 = alloca ptr, align 8
  %5 = getelementptr inbounds nuw %"class.__gnu_cxx::__normal_iterator", ptr %3, i32 0, i32 0
  store ptr %1, ptr %5, align 8
  store ptr %0, ptr %4, align 8
  %6 = load ptr, ptr %4, align 8
  %7 = getelementptr inbounds nuw %"class.std::reverse_iterator", ptr %6, i32 0, i32 0
  call void @llvm.memcpy.p0.p0.i64(ptr align 8 %7, ptr align 8 %3, i64 8, i1 false)
  ret void
}

; Function Attrs: mustprogress nounwind uwtable
define linkonce_odr void @_ZN9__gnu_cxx17__normal_iteratorIPKN32pxrInternal_v0_24__pxrReserved__10TsKeyFrameESt6vectorIS2_SaIS2_EEEC2ERKS4_(ptr noundef nonnull align 8 dereferenceable(8) %0, ptr noundef nonnull align 8 dereferenceable(8) %1) unnamed_addr #1 comdat align 2 {
  %3 = alloca ptr, align 8
  %4 = alloca ptr, align 8
  store ptr %0, ptr %3, align 8
  store ptr %1, ptr %4, align 8
  %5 = load ptr, ptr %3, align 8
  %6 = getelementptr inbounds nuw %"class.__gnu_cxx::__normal_iterator", ptr %5, i32 0, i32 0
  %7 = load ptr, ptr %4, align 8
  %8 = load ptr, ptr %7, align 8
  store ptr %8, ptr %6, align 8
  ret void
}

; Function Attrs: mustprogress nounwind uwtable
define linkonce_odr noundef double @_ZNK32pxrInternal_v0_24__pxrReserved__7Ts_Data7GetTimeEv(ptr noundef nonnull align 8 dereferenceable(16) %0) #1 comdat align 2 {
  %2 = alloca ptr, align 8
  store ptr %0, ptr %2, align 8
  %3 = load ptr, ptr %2, align 8
  %4 = getelementptr inbounds nuw %"class.pxrInternal_v0_24__pxrReserved__::Ts_Data", ptr %3, i32 0, i32 1
  %5 = load double, ptr %4, align 8
  ret double %5
}

; Function Attrs: mustprogress nounwind uwtable
define linkonce_odr noundef ptr @_ZNK32pxrInternal_v0_24__pxrReserved__24Ts_PolymorphicDataHolder3GetEv(ptr noundef nonnull align 8 dereferenceable(72) %0) #1 comdat align 2 {
  %2 = alloca ptr, align 8
  store ptr %0, ptr %2, align 8
  %3 = load ptr, ptr %2, align 8
  %4 = getelementptr inbounds nuw %"class.pxrInternal_v0_24__pxrReserved__::Ts_PolymorphicDataHolder", ptr %3, i32 0, i32 0
  ret ptr %4
}

; Function Attrs: mustprogress nounwind uwtable
define linkonce_odr ptr @_ZNKSt6vectorIN32pxrInternal_v0_24__pxrReserved__10TsKeyFrameESaIS1_EE5beginEv(ptr noundef nonnull align 8 dereferenceable(24) %0) #1 comdat align 2 {
  %2 = alloca %"class.__gnu_cxx::__normal_iterator", align 8
  %3 = alloca ptr, align 8
  store ptr %0, ptr %3, align 8
  %4 = load ptr, ptr %3, align 8
  %5 = getelementptr inbounds nuw %"struct.std::_Vector_base", ptr %4, i32 0, i32 0
  %6 = getelementptr inbounds nuw %"struct.std::_Vector_base<pxrInternal_v0_24__pxrReserved__::TsKeyFrame, std::allocator<pxrInternal_v0_24__pxrReserved__::TsKeyFrame>>::_Vector_impl_data", ptr %5, i32 0, i32 0
  call void @_ZN9__gnu_cxx17__normal_iteratorIPKN32pxrInternal_v0_24__pxrReserved__10TsKeyFrameESt6vectorIS2_SaIS2_EEEC2ERKS4_(ptr noundef nonnull align 8 dereferenceable(8) %2, ptr noundef nonnull align 8 dereferenceable(8) %6) #6
  %7 = getelementptr inbounds nuw %"class.__gnu_cxx::__normal_iterator", ptr %2, i32 0, i32 0
  %8 = load ptr, ptr %7, align 8
  ret ptr %8
}

; Function Attrs: mustprogress nounwind uwtable
define linkonce_odr void @_ZNKSt6vectorIN32pxrInternal_v0_24__pxrReserved__10TsKeyFrameESaIS1_EE6rbeginEv(ptr dead_on_unwind noalias writable sret(%"class.std::reverse_iterator") align 8 %0, ptr noundef nonnull align 8 dereferenceable(24) %1) #1 comdat align 2 {
  %3 = alloca ptr, align 8
  %4 = alloca ptr, align 8
  %5 = alloca %"class.__gnu_cxx::__normal_iterator", align 8
  store ptr %0, ptr %3, align 8
  store ptr %1, ptr %4, align 8
  %6 = load ptr, ptr %4, align 8
  %7 = call ptr @_ZNKSt6vectorIN32pxrInternal_v0_24__pxrReserved__10TsKeyFrameESaIS1_EE3endEv(ptr noundef nonnull align 8 dereferenceable(24) %6) #6
  %8 = getelementptr inbounds nuw %"class.__gnu_cxx::__normal_iterator", ptr %5, i32 0, i32 0
  store ptr %7, ptr %8, align 8
  %9 = getelementptr inbounds nuw %"class.__gnu_cxx::__normal_iterator", ptr %5, i32 0, i32 0
  %10 = load ptr, ptr %9, align 8
  call void @_ZNSt16reverse_iteratorIN9__gnu_cxx17__normal_iteratorIPKN32pxrInternal_v0_24__pxrReserved__10TsKeyFrameESt6vectorIS3_SaIS3_EEEEEC2ES9_(ptr noundef nonnull align 8 dereferenceable(8) %0, ptr %10) #6
  ret void
}

; Function Attrs: mustprogress nounwind uwtable
define linkonce_odr noundef nonnull align 8 dereferenceable(8) ptr @_ZNK9__gnu_cxx17__normal_iteratorIPKN32pxrInternal_v0_24__pxrReserved__10TsKeyFrameESt6vectorIS2_SaIS2_EEE4baseEv(ptr noundef nonnull align 8 dereferenceable(8) %0) #1 comdat align 2 {
  %2 = alloca ptr, align 8
  store ptr %0, ptr %2, align 8
  %3 = load ptr, ptr %2, align 8
  %4 = getelementptr inbounds nuw %"class.__gnu_cxx::__normal_iterator", ptr %3, i32 0, i32 0
  ret ptr %4
}

; Function Attrs: mustprogress nounwind uwtable
define linkonce_odr ptr @_ZNKSt6vectorIN32pxrInternal_v0_24__pxrReserved__10TsKeyFrameESaIS1_EE3endEv(ptr noundef nonnull align 8 dereferenceable(24) %0) #1 comdat align 2 {
  %2 = alloca %"class.__gnu_cxx::__normal_iterator", align 8
  %3 = alloca ptr, align 8
  store ptr %0, ptr %3, align 8
  %4 = load ptr, ptr %3, align 8
  %5 = getelementptr inbounds nuw %"struct.std::_Vector_base", ptr %4, i32 0, i32 0
  %6 = getelementptr inbounds nuw %"struct.std::_Vector_base<pxrInternal_v0_24__pxrReserved__::TsKeyFrame, std::allocator<pxrInternal_v0_24__pxrReserved__::TsKeyFrame>>::_Vector_impl_data", ptr %5, i32 0, i32 1
  call void @_ZN9__gnu_cxx17__normal_iteratorIPKN32pxrInternal_v0_24__pxrReserved__10TsKeyFrameESt6vectorIS2_SaIS2_EEEC2ERKS4_(ptr noundef nonnull align 8 dereferenceable(8) %2, ptr noundef nonnull align 8 dereferenceable(8) %6) #6
  %7 = getelementptr inbounds nuw %"class.__gnu_cxx::__normal_iterator", ptr %2, i32 0, i32 0
  %8 = load ptr, ptr %7, align 8
  ret ptr %8
}

; Function Attrs: mustprogress nounwind uwtable
define linkonce_odr noundef zeroext i1 @_ZNKSt6vectorIN32pxrInternal_v0_24__pxrReserved__10TsKeyFrameESaIS1_EE5emptyEv(ptr noundef nonnull align 8 dereferenceable(24) %0) #1 comdat align 2 {
  %2 = alloca ptr, align 8
  %3 = alloca %"class.__gnu_cxx::__normal_iterator", align 8
  %4 = alloca %"class.__gnu_cxx::__normal_iterator", align 8
  store ptr %0, ptr %2, align 8
  %5 = load ptr, ptr %2, align 8
  %6 = call ptr @_ZNKSt6vectorIN32pxrInternal_v0_24__pxrReserved__10TsKeyFrameESaIS1_EE5beginEv(ptr noundef nonnull align 8 dereferenceable(24) %5) #6
  %7 = getelementptr inbounds nuw %"class.__gnu_cxx::__normal_iterator", ptr %3, i32 0, i32 0
  store ptr %6, ptr %7, align 8
  %8 = call ptr @_ZNKSt6vectorIN32pxrInternal_v0_24__pxrReserved__10TsKeyFrameESaIS1_EE3endEv(ptr noundef nonnull align 8 dereferenceable(24) %5) #6
  %9 = getelementptr inbounds nuw %"class.__gnu_cxx::__normal_iterator", ptr %4, i32 0, i32 0
  store ptr %8, ptr %9, align 8
  %10 = call noundef zeroext i1 @_ZN9__gnu_cxxeqIPKN32pxrInternal_v0_24__pxrReserved__10TsKeyFrameESt6vectorIS2_SaIS2_EEEEbRKNS_17__normal_iteratorIT_T0_EESD_(ptr noundef nonnull align 8 dereferenceable(8) %3, ptr noundef nonnull align 8 dereferenceable(8) %4) #6
  ret i1 %10
}

; Function Attrs: mustprogress uwtable
define linkonce_odr noundef double @_ZNK32pxrInternal_v0_24__pxrReserved__10TsKeyFrame7GetTimeEv(ptr noundef nonnull align 8 dereferenceable(72) %0) #0 comdat align 2 {
  %2 = alloca ptr, align 8
  store ptr %0, ptr %2, align 8
  %3 = load ptr, ptr %2, align 8
  %4 = getelementptr inbounds nuw %"class.pxrInternal_v0_24__pxrReserved__::TsKeyFrame", ptr %3, i32 0, i32 0
  %5 = call noundef ptr @_ZNK32pxrInternal_v0_24__pxrReserved__24Ts_PolymorphicDataHolder3GetEv(ptr noundef nonnull align 8 dereferenceable(72) %4)
  %6 = call noundef double @_ZNK32pxrInternal_v0_24__pxrReserved__7Ts_Data7GetTimeEv(ptr noundef nonnull align 8 dereferenceable(16) %5)
  ret double %6
}

; Function Attrs: mustprogress nounwind uwtable
define linkonce_odr noundef ptr @_ZNK9__gnu_cxx17__normal_iteratorIPKN32pxrInternal_v0_24__pxrReserved__10TsKeyFrameESt6vectorIS2_SaIS2_EEEptEv(ptr noundef nonnull align 8 dereferenceable(8) %0) #1 comdat align 2 {
  %2 = alloca ptr, align 8
  store ptr %0, ptr %2, align 8
  %3 = load ptr, ptr %2, align 8
  %4 = getelementptr inbounds nuw %"class.__gnu_cxx::__normal_iterator", ptr %3, i32 0, i32 0
  %5 = load ptr, ptr %4, align 8
  ret ptr %5
}

; Function Attrs: mustprogress nounwind uwtable
define linkonce_odr noundef nonnull align 8 dereferenceable(8) ptr @_ZN9__gnu_cxx17__normal_iteratorIPKN32pxrInternal_v0_24__pxrReserved__10TsKeyFrameESt6vectorIS2_SaIS2_EEEmmEv(ptr noundef nonnull align 8 dereferenceable(8) %0) #1 comdat align 2 {
  %2 = alloca ptr, align 8
  store ptr %0, ptr %2, align 8
  %3 = load ptr, ptr %2, align 8
  %4 = getelementptr inbounds nuw %"class.__gnu_cxx::__normal_iterator", ptr %3, i32 0, i32 0
  %5 = load ptr, ptr %4, align 8
  %6 = getelementptr inbounds %"class.pxrInternal_v0_24__pxrReserved__::TsKeyFrame", ptr %5, i32 -1
  store ptr %6, ptr %4, align 8
  ret ptr %3
}

; Function Attrs: mustprogress nounwind uwtable
define linkonce_odr noundef zeroext i1 @_ZN9__gnu_cxxneIPKN32pxrInternal_v0_24__pxrReserved__10TsKeyFrameESt6vectorIS2_SaIS2_EEEEbRKNS_17__normal_iteratorIT_T0_EESD_(ptr noundef nonnull align 8 dereferenceable(8) %0, ptr noundef nonnull align 8 dereferenceable(8) %1) #1 comdat {
  %3 = alloca ptr, align 8
  %4 = alloca ptr, align 8
  store ptr %0, ptr %3, align 8
  store ptr %1, ptr %4, align 8
  %5 = load ptr, ptr %3, align 8
  %6 = call noundef nonnull align 8 dereferenceable(8) ptr @_ZNK9__gnu_cxx17__normal_iteratorIPKN32pxrInternal_v0_24__pxrReserved__10TsKeyFrameESt6vectorIS2_SaIS2_EEE4baseEv(ptr noundef nonnull align 8 dereferenceable(8) %5) #6
  %7 = load ptr, ptr %6, align 8
  %8 = load ptr, ptr %4, align 8
  %9 = call noundef nonnull align 8 dereferenceable(8) ptr @_ZNK9__gnu_cxx17__normal_iteratorIPKN32pxrInternal_v0_24__pxrReserved__10TsKeyFrameESt6vectorIS2_SaIS2_EEE4baseEv(ptr noundef nonnull align 8 dereferenceable(8) %8) #6
  %10 = load ptr, ptr %9, align 8
  %11 = icmp ne ptr %7, %10
  ret i1 %11
}

; Function Attrs: mustprogress nounwind uwtable
define linkonce_odr ptr @_ZNK32pxrInternal_v0_24__pxrReserved__13TsKeyFrameMap5beginEv(ptr noundef nonnull align 8 dereferenceable(24) %0) #1 comdat align 2 {
  %2 = alloca %"class.__gnu_cxx::__normal_iterator", align 8
  %3 = alloca ptr, align 8
  store ptr %0, ptr %3, align 8
  %4 = load ptr, ptr %3, align 8
  %5 = getelementptr inbounds nuw %"class.pxrInternal_v0_24__pxrReserved__::TsKeyFrameMap", ptr %4, i32 0, i32 0
  %6 = call ptr @_ZNKSt6vectorIN32pxrInternal_v0_24__pxrReserved__10TsKeyFrameESaIS1_EE5beginEv(ptr noundef nonnull align 8 dereferenceable(24) %5) #6
  %7 = getelementptr inbounds nuw %"class.__gnu_cxx::__normal_iterator", ptr %2, i32 0, i32 0
  store ptr %6, ptr %7, align 8
  %8 = getelementptr inbounds nuw %"class.__gnu_cxx::__normal_iterator", ptr %2, i32 0, i32 0
  %9 = load ptr, ptr %8, align 8
  ret ptr %9
}

; Function Attrs: mustprogress nounwind uwtable
define linkonce_odr noundef nonnull align 8 dereferenceable(72) ptr @_ZNK9__gnu_cxx17__normal_iteratorIPKN32pxrInternal_v0_24__pxrReserved__10TsKeyFrameESt6vectorIS2_SaIS2_EEEdeEv(ptr noundef nonnull align 8 dereferenceable(8) %0) #1 comdat align 2 {
  %2 = alloca ptr, align 8
  store ptr %0, ptr %2, align 8
  %3 = load ptr, ptr %2, align 8
  %4 = getelementptr inbounds nuw %"class.__gnu_cxx::__normal_iterator", ptr %3, i32 0, i32 0
  %5 = load ptr, ptr %4, align 8
  ret ptr %5
}

; Function Attrs: mustprogress nounwind uwtable
define linkonce_odr noundef nonnull align 8 dereferenceable(72) ptr @_ZNKSt16reverse_iteratorIN9__gnu_cxx17__normal_iteratorIPKN32pxrInternal_v0_24__pxrReserved__10TsKeyFrameESt6vectorIS3_SaIS3_EEEEEdeEv(ptr noundef nonnull align 8 dereferenceable(8) %0) #1 comdat align 2 {
  %2 = alloca ptr, align 8
  %3 = alloca %"class.__gnu_cxx::__normal_iterator", align 8
  store ptr %0, ptr %2, align 8
  %4 = load ptr, ptr %2, align 8
  %5 = getelementptr inbounds nuw %"class.std::reverse_iterator", ptr %4, i32 0, i32 0
  call void @llvm.memcpy.p0.p0.i64(ptr align 8 %3, ptr align 8 %5, i64 8, i1 false)
  %6 = call noundef nonnull align 8 dereferenceable(8) ptr @_ZN9__gnu_cxx17__normal_iteratorIPKN32pxrInternal_v0_24__pxrReserved__10TsKeyFrameESt6vectorIS2_SaIS2_EEEmmEv(ptr noundef nonnull align 8 dereferenceable(8) %3) #6
  %7 = call noundef nonnull align 8 dereferenceable(72) ptr @_ZNK9__gnu_cxx17__normal_iteratorIPKN32pxrInternal_v0_24__pxrReserved__10TsKeyFrameESt6vectorIS2_SaIS2_EEEdeEv(ptr noundef nonnull align 8 dereferenceable(8) %6) #6
  ret ptr %7
}

; Function Attrs: mustprogress nounwind uwtable
define linkonce_odr void @_ZNK32pxrInternal_v0_24__pxrReserved__13TsKeyFrameMap6rbeginEv(ptr dead_on_unwind noalias writable sret(%"class.std::reverse_iterator") align 8 %0, ptr noundef nonnull align 8 dereferenceable(24) %1) #1 comdat align 2 {
  %3 = alloca ptr, align 8
  %4 = alloca ptr, align 8
  store ptr %0, ptr %3, align 8
  store ptr %1, ptr %4, align 8
  %5 = load ptr, ptr %4, align 8
  %6 = getelementptr inbounds nuw %"class.pxrInternal_v0_24__pxrReserved__::TsKeyFrameMap", ptr %5, i32 0, i32 0
  call void @_ZNKSt6vectorIN32pxrInternal_v0_24__pxrReserved__10TsKeyFrameESaIS1_EE6rbeginEv(ptr dead_on_unwind writable sret(%"class.std::reverse_iterator") align 8 %0, ptr noundef nonnull align 8 dereferenceable(24) %6) #6
  ret void
}

; Function Attrs: mustprogress nounwind uwtable
define linkonce_odr noundef zeroext i1 @_ZN9__gnu_cxxeqIPKN32pxrInternal_v0_24__pxrReserved__10TsKeyFrameESt6vectorIS2_SaIS2_EEEEbRKNS_17__normal_iteratorIT_T0_EESD_(ptr noundef nonnull align 8 dereferenceable(8) %0, ptr noundef nonnull align 8 dereferenceable(8) %1) #1 comdat {
  %3 = alloca ptr, align 8
  %4 = alloca ptr, align 8
  store ptr %0, ptr %3, align 8
  store ptr %1, ptr %4, align 8
  %5 = load ptr, ptr %3, align 8
  %6 = call noundef nonnull align 8 dereferenceable(8) ptr @_ZNK9__gnu_cxx17__normal_iteratorIPKN32pxrInternal_v0_24__pxrReserved__10TsKeyFrameESt6vectorIS2_SaIS2_EEE4baseEv(ptr noundef nonnull align 8 dereferenceable(8) %5) #6
  %7 = load ptr, ptr %6, align 8
  %8 = load ptr, ptr %4, align 8
  %9 = call noundef nonnull align 8 dereferenceable(8) ptr @_ZNK9__gnu_cxx17__normal_iteratorIPKN32pxrInternal_v0_24__pxrReserved__10TsKeyFrameESt6vectorIS2_SaIS2_EEE4baseEv(ptr noundef nonnull align 8 dereferenceable(8) %8) #6
  %10 = load ptr, ptr %9, align 8
  %11 = icmp eq ptr %7, %10
  ret i1 %11
}

; Function Attrs: mustprogress nounwind uwtable
define linkonce_odr ptr @_ZNK32pxrInternal_v0_24__pxrReserved__13TsKeyFrameMap3endEv(ptr noundef nonnull align 8 dereferenceable(24) %0) #1 comdat align 2 {
  %2 = alloca %"class.__gnu_cxx::__normal_iterator", align 8
  %3 = alloca ptr, align 8
  store ptr %0, ptr %3, align 8
  %4 = load ptr, ptr %3, align 8
  %5 = getelementptr inbounds nuw %"class.pxrInternal_v0_24__pxrReserved__::TsKeyFrameMap", ptr %4, i32 0, i32 0
  %6 = call ptr @_ZNKSt6vectorIN32pxrInternal_v0_24__pxrReserved__10TsKeyFrameESaIS1_EE3endEv(ptr noundef nonnull align 8 dereferenceable(24) %5) #6
  %7 = getelementptr inbounds nuw %"class.__gnu_cxx::__normal_iterator", ptr %2, i32 0, i32 0
  store ptr %6, ptr %7, align 8
  %8 = getelementptr inbounds nuw %"class.__gnu_cxx::__normal_iterator", ptr %2, i32 0, i32 0
  %9 = load ptr, ptr %8, align 8
  ret ptr %9
}

; Function Attrs: mustprogress nounwind uwtable
define linkonce_odr noundef zeroext i1 @_ZNK32pxrInternal_v0_24__pxrReserved__13TsKeyFrameMap5emptyEv(ptr noundef nonnull align 8 dereferenceable(24) %0) #1 comdat align 2 {
  %2 = alloca ptr, align 8
  store ptr %0, ptr %2, align 8
  %3 = load ptr, ptr %2, align 8
  %4 = getelementptr inbounds nuw %"class.pxrInternal_v0_24__pxrReserved__::TsKeyFrameMap", ptr %3, i32 0, i32 0
  %5 = call noundef zeroext i1 @_ZNKSt6vectorIN32pxrInternal_v0_24__pxrReserved__10TsKeyFrameESaIS1_EE5emptyEv(ptr noundef nonnull align 8 dereferenceable(24) %4) #6
  ret i1 %5
}

; Function Attrs: mustprogress uwtable
define noundef ptr @_ZN32pxrInternal_v0_24__pxrReserved__21Ts_GetClosestKeyFrameERKNS_13TsKeyFrameMapEd(ptr noundef nonnull align 8 dereferenceable(24) %0, double noundef %1) #0 {
  %3 = alloca ptr, align 8
  %4 = alloca ptr, align 8
  %5 = alloca double, align 8
  %6 = alloca ptr, align 8
  %7 = alloca %"class.__gnu_cxx::__normal_iterator", align 8
  %8 = alloca %"class.__gnu_cxx::__normal_iterator", align 8
  %9 = alloca %"class.std::reverse_iterator", align 8
  %10 = alloca %"class.__gnu_cxx::__normal_iterator", align 8
  store ptr %0, ptr %4, align 8
  store double %1, ptr %5, align 8
  %11 = load ptr, ptr %4, align 8
  %12 = call noundef zeroext i1 @_ZNK32pxrInternal_v0_24__pxrReserved__13TsKeyFrameMap5emptyEv(ptr noundef nonnull align 8 dereferenceable(24) %11)
  br i1 %12, label %13, label %14

13:                                               ; preds = %2
  store ptr null, ptr %3, align 8
  br label %48

14:                                               ; preds = %2
  %15 = load ptr, ptr %4, align 8
  %16 = load double, ptr %5, align 8
  %17 = call ptr @_ZNK32pxrInternal_v0_24__pxrReserved__13TsKeyFrameMap11lower_boundEd(ptr noundef nonnull align 8 dereferenceable(24) %15, double noundef %16)
  %18 = getelementptr inbounds nuw %"class.__gnu_cxx::__normal_iterator", ptr %7, i32 0, i32 0
  store ptr %17, ptr %18, align 8
  %19 = load ptr, ptr %4, align 8
  %20 = call ptr @_ZNK32pxrInternal_v0_24__pxrReserved__13TsKeyFrameMap3endEv(ptr noundef nonnull align 8 dereferenceable(24) %19)
  %21 = getelementptr inbounds nuw %"class.__gnu_cxx::__normal_iterator", ptr %8, i32 0, i32 0
  store ptr %20, ptr %21, align 8
  %22 = call noundef zeroext i1 @_ZN9__gnu_cxxeqIPKN32pxrInternal_v0_24__pxrReserved__10TsKeyFrameESt6vectorIS2_SaIS2_EEEEbRKNS_17__normal_iteratorIT_T0_EESD_(ptr noundef nonnull align 8 dereferenceable(8) %7, ptr noundef nonnull align 8 dereferenceable(8) %8) #6
  br i1 %22, label %23, label %26

23:                                               ; preds = %14
  %24 = load ptr, ptr %4, align 8
  call void @_ZNK32pxrInternal_v0_24__pxrReserved__13TsKeyFrameMap6rbeginEv(ptr dead_on_unwind writable sret(%"class.std::reverse_iterator") align 8 %9, ptr noundef nonnull align 8 dereferenceable(24) %24)
  %25 = call noundef nonnull align 8 dereferenceable(72) ptr @_ZNKSt16reverse_iteratorIN9__gnu_cxx17__normal_iteratorIPKN32pxrInternal_v0_24__pxrReserved__10TsKeyFrameESt6vectorIS3_SaIS3_EEEEEdeEv(ptr noundef nonnull align 8 dereferenceable(8) %9)
  store ptr %25, ptr %3, align 8
  br label %48

26:                                               ; preds = %14
  %27 = call noundef nonnull align 8 dereferenceable(72) ptr @_ZNK9__gnu_cxx17__normal_iteratorIPKN32pxrInternal_v0_24__pxrReserved__10TsKeyFrameESt6vectorIS2_SaIS2_EEEdeEv(ptr noundef nonnull align 8 dereferenceable(8) %7) #6
  store ptr %27, ptr %6, align 8
  %28 = load ptr, ptr %4, align 8
  %29 = call ptr @_ZNK32pxrInternal_v0_24__pxrReserved__13TsKeyFrameMap5beginEv(ptr noundef nonnull align 8 dereferenceable(24) %28)
  %30 = getelementptr inbounds nuw %"class.__gnu_cxx::__normal_iterator", ptr %10, i32 0, i32 0
  store ptr %29, ptr %30, align 8
  %31 = call noundef zeroext i1 @_ZN9__gnu_cxxneIPKN32pxrInternal_v0_24__pxrReserved__10TsKeyFrameESt6vectorIS2_SaIS2_EEEEbRKNS_17__normal_iteratorIT_T0_EESD_(ptr noundef nonnull align 8 dereferenceable(8) %7, ptr noundef nonnull align 8 dereferenceable(8) %10) #6
  br i1 %31, label %32, label %46

32:                                               ; preds = %26
  %33 = call noundef nonnull align 8 dereferenceable(8) ptr @_ZN9__gnu_cxx17__normal_iteratorIPKN32pxrInternal_v0_24__pxrReserved__10TsKeyFrameESt6vectorIS2_SaIS2_EEEmmEv(ptr noundef nonnull align 8 dereferenceable(8) %7) #6
  %34 = load double, ptr %5, align 8
  %35 = call noundef ptr @_ZNK9__gnu_cxx17__normal_iteratorIPKN32pxrInternal_v0_24__pxrReserved__10TsKeyFrameESt6vectorIS2_SaIS2_EEEptEv(ptr noundef nonnull align 8 dereferenceable(8) %7) #6
  %36 = call noundef double @_ZNK32pxrInternal_v0_24__pxrReserved__10TsKeyFrame7GetTimeEv(ptr noundef nonnull align 8 dereferenceable(72) %35)
  %37 = fsub double %34, %36
  %38 = load ptr, ptr %6, align 8
  %39 = call noundef double @_ZNK32pxrInternal_v0_24__pxrReserved__10TsKeyFrame7GetTimeEv(ptr noundef nonnull align 8 dereferenceable(72) %38)
  %40 = load double, ptr %5, align 8
  %41 = fsub double %39, %40
  %42 = fcmp olt double %37, %41
  br i1 %42, label %43, label %45

43:                                               ; preds = %32
  %44 = call noundef nonnull align 8 dereferenceable(72) ptr @_ZNK9__gnu_cxx17__normal_iteratorIPKN32pxrInternal_v0_24__pxrReserved__10TsKeyFrameESt6vectorIS2_SaIS2_EEEdeEv(ptr noundef nonnull align 8 dereferenceable(8) %7) #6
  store ptr %44, ptr %6, align 8
  br label %45

45:                                               ; preds = %43, %32
  br label %46

46:                                               ; preds = %45, %26
  %47 = load ptr, ptr %6, align 8
  store ptr %47, ptr %3, align 8
  br label %48

48:                                               ; preds = %46, %23, %13
  %49 = load ptr, ptr %3, align 8
  ret ptr %49
}