; Function Attrs: mustprogress uwtable
define noundef ptr @_ZN32pxrInternal_v0_24__pxrReserved__21Ts_GetClosestKeyFrameERKNS_13TsKeyFrameMapEd(ptr noundef nonnull align 8 dereferenceable(24) %0, double noundef %1) local_unnamed_addr #0 {
  %3 = load ptr, ptr %0, align 8
  %4 = getelementptr inbounds nuw i8, ptr %0, i64 8
  %5 = load ptr, ptr %4, align 8
  %6 = icmp eq ptr %3, %5
  br i1 %6, label %25, label %7

7:                                                ; preds = %2
  %8 = tail call ptr @_ZNK32pxrInternal_v0_24__pxrReserved__13TsKeyFrameMap11lower_boundEd(ptr noundef nonnull align 8 dereferenceable(24) %0, double noundef %1)
  %9 = load ptr, ptr %4, align 8
  %10 = icmp eq ptr %8, %9
  br i1 %10, label %11, label %13

11:                                               ; preds = %7
  %12 = getelementptr inbounds i8, ptr %9, i64 -72
  br label %25

13:                                               ; preds = %7
  %14 = load ptr, ptr %0, align 8
  %.not = icmp eq ptr %8, %14
  br i1 %.not, label %25, label %15

15:                                               ; preds = %13
  %16 = getelementptr inbounds i8, ptr %8, i64 -64
  %17 = load double, ptr %16, align 8
  %18 = fsub double %1, %17
  %19 = getelementptr inbounds nuw i8, ptr %8, i64 8
  %20 = load double, ptr %19, align 8
  %21 = fsub double %20, %1
  %22 = fcmp olt double %18, %21
  br i1 %22, label %23, label %25

23:                                               ; preds = %15
  %24 = getelementptr inbounds i8, ptr %8, i64 -72
  br label %25

25:                                               ; preds = %13, %23, %15, %2, %11
  %.011 = phi ptr [ %12, %11 ], [ null, %2 ], [ %24, %23 ], [ %8, %15 ], [ %8, %13 ]
  ret ptr %.011
}